target datalayout = "e-m:e-p270:32:32-p271:32:32-p272:64:64-i64:64-i128:128-f80:128-n8:16:32:64-S128"
target triple = "x86_64-pc-linux-gnu"

%class.cmCryptoHash = type { i32, ptr }

@_ZL20cmCryptoHashAlgoToId = internal constant [10 x i32] [i32 1, i32 2, i32 4, i32 8, i32 16, i32 32, i32 64, i32 128, i32 256, i32 512], align 16
@_ZL38cmCryptoHash_rhash_library_initialized = internal global i32 0, align 4

; Function Attrs: mustprogress uwtable
define internal noundef ptr @_ZL23cmCryptoHash_rhash_initj(i32 noundef %0) #0 {
  %2 = alloca i32, align 4
  store i32 %0, ptr %2, align 4, !tbaa !11
  %3 = load i32, ptr @_ZL38cmCryptoHash_rhash_library_initialized, align 4, !tbaa !11
  %4 = icmp ne i32 %3, 0
  br i1 %4, label %6, label %5

5:                                                ; preds = %1
  store i32 1, ptr @_ZL38cmCryptoHash_rhash_library_initialized, align 4, !tbaa !11
  call void @rhash_library_init()
  br label %6

6:                                                ; preds = %5, %1
  %7 = load i32, ptr %2, align 4, !tbaa !11
  %8 = call ptr @rhash_init(i32 noundef %7)
  ret ptr %8
}

; Function Attrs: mustprogress uwtable
define dso_local void @_ZN12cmCryptoHashC2ENS_4AlgoE(ptr noundef nonnull align 8 dereferenceable(16) %0, i32 noundef %1) unnamed_addr #0 align 2 {
  %3 = alloca ptr, align 8
  %4 = alloca i32, align 4
  store ptr %0, ptr %3, align 8, !tbaa !4
  store i32 %1, ptr %4, align 4, !tbaa !9
  %5 = load ptr, ptr %3, align 8
  %6 = getelementptr inbounds nuw %class.cmCryptoHash, ptr %5, i32 0, i32 0
  %7 = load i32, ptr %4, align 4, !tbaa !9
  %8 = zext i32 %7 to i64
  %9 = getelementptr inbounds nuw [10 x i32], ptr @_ZL20cmCryptoHashAlgoToId, i64 0, i64 %8
  %10 = load i32, ptr %9, align 4, !tbaa !11
  store i32 %10, ptr %6, align 8, !tbaa !13
  %11 = getelementptr inbounds nuw %class.cmCryptoHash, ptr %5, i32 0, i32 1
  %12 = getelementptr inbounds nuw %class.cmCryptoHash, ptr %5, i32 0, i32 0
  %13 = load i32, ptr %12, align 8, !tbaa !13
  %14 = call noundef ptr @_ZL23cmCryptoHash_rhash_initj(i32 noundef %13)
  store ptr %14, ptr %11, align 8, !tbaa !16
  ret void
}