; Function Attrs: mustprogress uwtable
define dso_local void @_ZN12cmCryptoHashC2ENS_4AlgoE(ptr noundef nonnull writeonly align 8 captures(none) dereferenceable(16) initializes((0, 4), (8, 16)) %0, i32 noundef %1) unnamed_addr #0 align 2 {
  %3 = zext i32 %1 to i64
  %4 = getelementptr inbounds nuw [10 x i32], ptr @_ZL20cmCryptoHashAlgoToId, i64 0, i64 %3
  %5 = load i32, ptr %4, align 4, !tbaa !4
  store i32 %5, ptr %0, align 8, !tbaa !8
  %.b.i = load i1, ptr @_ZL38cmCryptoHash_rhash_library_initialized, align 4
  br i1 %.b.i, label %_ZL23cmCryptoHash_rhash_initj.exit, label %6

6:                                                ; preds = %2
  store i1 true, ptr @_ZL38cmCryptoHash_rhash_library_initialized, align 4
  tail call void @rhash_library_init()
  br label %_ZL23cmCryptoHash_rhash_initj.exit

_ZL23cmCryptoHash_rhash_initj.exit:               ; preds = %2, %6
  %7 = getelementptr inbounds nuw i8, ptr %0, i64 8
  %8 = tail call noundef ptr @rhash_init(i32 noundef %5)
  store ptr %8, ptr %7, align 8, !tbaa !12
  ret void
}